target datalayout = "e-m:e-p270:32:32-p271:32:32-p272:64:64-i64:64-i128:128-f80:128-n8:16:32:64-S128"
target triple = "x86_64-pc-linux-gnu"

%struct.Abc_Ntk_t_ = type { i32, i32, ptr, ptr, ptr, ptr, ptr, ptr, ptr, ptr, ptr, ptr, ptr, [11 x i32], i32, i32, i32, i32, ptr, i32, ptr, ptr, i32, i32, i32, double, i32, %struct.Vec_Int_t_, ptr, ptr, ptr, ptr, ptr, float, i32, ptr, ptr, ptr, ptr, ptr, ptr, ptr, ptr, ptr, ptr, ptr, ptr, ptr, ptr, ptr, ptr, ptr, ptr, ptr, ptr, ptr }
%struct.Vec_Int_t_ = type { i32, i32, ptr }
%struct.Abc_Obj_t_ = type { ptr, ptr, i32, i32, %struct.Vec_Int_t_, %struct.Vec_Int_t_, %union.anon, %union.anon.0 }
%union.anon = type { ptr }
%union.anon.0 = type { ptr }
%struct.Vec_Ptr_t_ = type { i32, i32, ptr }

@.str.7 = private unnamed_addr constant [2 x i8] c"\0A\00", align 1
@.str.76 = private unnamed_addr constant [8 x i8] c"Node %s\00", align 1
@.str.77 = private unnamed_addr constant [14 x i8] c"Fanins (%d): \00", align 1
@.str.78 = private unnamed_addr constant [4 x i8] c" %s\00", align 1
@.str.79 = private unnamed_addr constant [15 x i8] c"Fanouts (%d): \00", align 1

; Function Attrs: nounwind uwtable
define internal ptr @Abc_ObjFanout(ptr noundef %0, i32 noundef %1) #0 {
  %3 = alloca ptr, align 8
  %4 = alloca i32, align 4
  store ptr %0, ptr %3, align 8
  store i32 %1, ptr %4, align 4
  %5 = load ptr, ptr %3, align 8
  %6 = getelementptr inbounds %struct.Abc_Obj_t_, ptr %5, i32 0, i32 0
  %7 = load ptr, ptr %6, align 8
  %8 = getelementptr inbounds %struct.Abc_Ntk_t_, ptr %7, i32 0, i32 5
  %9 = load ptr, ptr %8, align 8
  %10 = getelementptr inbounds %struct.Vec_Ptr_t_, ptr %9, i32 0, i32 2
  %11 = load ptr, ptr %10, align 8
  %12 = load ptr, ptr %3, align 8
  %13 = getelementptr inbounds %struct.Abc_Obj_t_, ptr %12, i32 0, i32 5
  %14 = getelementptr inbounds %struct.Vec_Int_t_, ptr %13, i32 0, i32 2
  %15 = load ptr, ptr %14, align 8
  %16 = load i32, ptr %4, align 4
  %17 = sext i32 %16 to i64
  %18 = getelementptr inbounds i32, ptr %15, i64 %17
  %19 = load i32, ptr %18, align 4
  %20 = sext i32 %19 to i64
  %21 = getelementptr inbounds ptr, ptr %11, i64 %20
  %22 = load ptr, ptr %21, align 8
  ret ptr %22
}

; Function Attrs: nounwind uwtable
define internal i32 @Abc_ObjFanoutNum(ptr noundef %0) #0 {
  %2 = alloca ptr, align 8
  store ptr %0, ptr %2, align 8
  %3 = load ptr, ptr %2, align 8
  %4 = getelementptr inbounds %struct.Abc_Obj_t_, ptr %3, i32 0, i32 5
  %5 = getelementptr inbounds %struct.Vec_Int_t_, ptr %4, i32 0, i32 1
  %6 = load i32, ptr %5, align 4
  ret i32 %6
}

; Function Attrs: nounwind uwtable
define internal ptr @Abc_ObjFanin(ptr noundef %0, i32 noundef %1) #0 {
  %3 = alloca ptr, align 8
  %4 = alloca i32, align 4
  store ptr %0, ptr %3, align 8
  store i32 %1, ptr %4, align 4
  %5 = load ptr, ptr %3, align 8
  %6 = getelementptr inbounds %struct.Abc_Obj_t_, ptr %5, i32 0, i32 0
  %7 = load ptr, ptr %6, align 8
  %8 = getelementptr inbounds %struct.Abc_Ntk_t_, ptr %7, i32 0, i32 5
  %9 = load ptr, ptr %8, align 8
  %10 = getelementptr inbounds %struct.Vec_Ptr_t_, ptr %9, i32 0, i32 2
  %11 = load ptr, ptr %10, align 8
  %12 = load ptr, ptr %3, align 8
  %13 = getelementptr inbounds %struct.Abc_Obj_t_, ptr %12, i32 0, i32 4
  %14 = getelementptr inbounds %struct.Vec_Int_t_, ptr %13, i32 0, i32 2
  %15 = load ptr, ptr %14, align 8
  %16 = load i32, ptr %4, align 4
  %17 = sext i32 %16 to i64
  %18 = getelementptr inbounds i32, ptr %15, i64 %17
  %19 = load i32, ptr %18, align 4
  %20 = sext i32 %19 to i64
  %21 = getelementptr inbounds ptr, ptr %11, i64 %20
  %22 = load ptr, ptr %21, align 8
  ret ptr %22
}

; Function Attrs: nounwind uwtable
define internal i32 @Abc_ObjFaninNum(ptr noundef %0) #0 {
  %2 = alloca ptr, align 8
  store ptr %0, ptr %2, align 8
  %3 = load ptr, ptr %2, align 8
  %4 = getelementptr inbounds %struct.Abc_Obj_t_, ptr %3, i32 0, i32 4
  %5 = getelementptr inbounds %struct.Vec_Int_t_, ptr %4, i32 0, i32 1
  %6 = load i32, ptr %5, align 4
  ret i32 %6
}

; Function Attrs: nounwind uwtable
define internal ptr @Abc_ObjFanin0(ptr noundef %0) #0 {
  %2 = alloca ptr, align 8
  store ptr %0, ptr %2, align 8
  %3 = load ptr, ptr %2, align 8
  %4 = getelementptr inbounds %struct.Abc_Obj_t_, ptr %3, i32 0, i32 0
  %5 = load ptr, ptr %4, align 8
  %6 = getelementptr inbounds %struct.Abc_Ntk_t_, ptr %5, i32 0, i32 5
  %7 = load ptr, ptr %6, align 8
  %8 = getelementptr inbounds %struct.Vec_Ptr_t_, ptr %7, i32 0, i32 2
  %9 = load ptr, ptr %8, align 8
  %10 = load ptr, ptr %2, align 8
  %11 = getelementptr inbounds %struct.Abc_Obj_t_, ptr %10, i32 0, i32 4
  %12 = getelementptr inbounds %struct.Vec_Int_t_, ptr %11, i32 0, i32 2
  %13 = load ptr, ptr %12, align 8
  %14 = getelementptr inbounds i32, ptr %13, i64 0
  %15 = load i32, ptr %14, align 4
  %16 = sext i32 %15 to i64
  %17 = getelementptr inbounds ptr, ptr %9, i64 %16
  %18 = load ptr, ptr %17, align 8
  ret ptr %18
}

; Function Attrs: nounwind uwtable
define internal i32 @Abc_ObjIsPo(ptr noundef %0) #0 {
  %2 = alloca ptr, align 8
  store ptr %0, ptr %2, align 8
  %3 = load ptr, ptr %2, align 8
  %4 = getelementptr inbounds %struct.Abc_Obj_t_, ptr %3, i32 0, i32 3
  %5 = load i32, ptr %4, align 4
  %6 = and i32 %5, 15
  %7 = icmp eq i32 %6, 3
  %8 = zext i1 %7 to i32
  ret i32 %8
}

; Function Attrs: nounwind uwtable
define void @Abc_NodePrintFanio(ptr noundef %0, ptr noundef %1) #0 {
  %3 = alloca ptr, align 8
  %4 = alloca ptr, align 8
  %5 = alloca ptr, align 8
  %6 = alloca i32, align 4
  store ptr %0, ptr %3, align 8
  store ptr %1, ptr %4, align 8
  %7 = load ptr, ptr %4, align 8
  %8 = call i32 @Abc_ObjIsPo(ptr noundef %7)
  %9 = icmp ne i32 %8, 0
  br i1 %9, label %10, label %13

10:                                               ; preds = %2
  %11 = load ptr, ptr %4, align 8
  %12 = call ptr @Abc_ObjFanin0(ptr noundef %11)
  store ptr %12, ptr %4, align 8
  br label %13

13:                                               ; preds = %10, %2
  %14 = load ptr, ptr %3, align 8
  %15 = load ptr, ptr %4, align 8
  %16 = call ptr @Abc_ObjName(ptr noundef %15)
  %17 = call i32 (ptr, ptr, ...) @fprintf(ptr noundef %14, ptr noundef @.str.76, ptr noundef %16) #11
  %18 = load ptr, ptr %3, align 8
  %19 = call i32 (ptr, ptr, ...) @fprintf(ptr noundef %18, ptr noundef @.str.7) #11
  %20 = load ptr, ptr %3, align 8
  %21 = load ptr, ptr %4, align 8
  %22 = call i32 @Abc_ObjFaninNum(ptr noundef %21)
  %23 = call i32 (ptr, ptr, ...) @fprintf(ptr noundef %20, ptr noundef @.str.77, i32 noundef %22) #11
  store i32 0, ptr %6, align 4
  br label %24

24:                                               ; preds = %40, %13
  %25 = load i32, ptr %6, align 4
  %26 = load ptr, ptr %4, align 8
  %27 = call i32 @Abc_ObjFaninNum(ptr noundef %26)
  %28 = icmp slt i32 %25, %27
  br i1 %28, label %29, label %33

29:                                               ; preds = %24
  %30 = load ptr, ptr %4, align 8
  %31 = load i32, ptr %6, align 4
  %32 = call ptr @Abc_ObjFanin(ptr noundef %30, i32 noundef %31)
  store ptr %32, ptr %5, align 8
  br label %33

33:                                               ; preds = %29, %24
  %34 = phi i1 [ false, %24 ], [ true, %29 ]
  br i1 %34, label %35, label %43

35:                                               ; preds = %33
  %36 = load ptr, ptr %3, align 8
  %37 = load ptr, ptr %5, align 8
  %38 = call ptr @Abc_ObjName(ptr noundef %37)
  %39 = call i32 (ptr, ptr, ...) @fprintf(ptr noundef %36, ptr noundef @.str.78, ptr noundef %38) #11
  br label %40

40:                                               ; preds = %35
  %41 = load i32, ptr %6, align 4
  %42 = add nsw i32 %41, 1
  store i32 %42, ptr %6, align 4
  br label %24, !llvm.loop !53

43:                                               ; preds = %33
  %44 = load ptr, ptr %3, align 8
  %45 = call i32 (ptr, ptr, ...) @fprintf(ptr noundef %44, ptr noundef @.str.7) #11
  %46 = load ptr, ptr %3, align 8
  %47 = load ptr, ptr %4, align 8
  %48 = call i32 @Abc_ObjFaninNum(ptr noundef %47)
  %49 = call i32 (ptr, ptr, ...) @fprintf(ptr noundef %46, ptr noundef @.str.79, i32 noundef %48) #11
  store i32 0, ptr %6, align 4
  br label %50

50:                                               ; preds = %66, %43
  %51 = load i32, ptr %6, align 4
  %52 = load ptr, ptr %4, align 8
  %53 = call i32 @Abc_ObjFanoutNum(ptr noundef %52)
  %54 = icmp slt i32 %51, %53
  br i1 %54, label %55, label %59

55:                                               ; preds = %50
  %56 = load ptr, ptr %4, align 8
  %57 = load i32, ptr %6, align 4
  %58 = call ptr @Abc_ObjFanout(ptr noundef %56, i32 noundef %57)
  store ptr %58, ptr %5, align 8
  br label %59

59:                                               ; preds = %55, %50
  %60 = phi i1 [ false, %50 ], [ true, %55 ]
  br i1 %60, label %61, label %69

61:                                               ; preds = %59
  %62 = load ptr, ptr %3, align 8
  %63 = load ptr, ptr %5, align 8
  %64 = call ptr @Abc_ObjName(ptr noundef %63)
  %65 = call i32 (ptr, ptr, ...) @fprintf(ptr noundef %62, ptr noundef @.str.78, ptr noundef %64) #11
  br label %66

66:                                               ; preds = %61
  %67 = load i32, ptr %6, align 4
  %68 = add nsw i32 %67, 1
  store i32 %68, ptr %6, align 4
  br label %50, !llvm.loop !54

69:                                               ; preds = %59
  %70 = load ptr, ptr %3, align 8
  %71 = call i32 (ptr, ptr, ...) @fprintf(ptr noundef %70, ptr noundef @.str.7) #11
  ret void
}