; Function Attrs: nounwind uwtable
define void @Abc_NodePrintFanio(ptr noundef captures(none) %0, ptr noundef %1) local_unnamed_addr #0 {
  %3 = getelementptr i8, ptr %1, i64 20
  %.val35 = load i32, ptr %3, align 4
  %4 = and i32 %.val35, 15
  %.not = icmp eq i32 %4, 3
  br i1 %.not, label %5, label %12

5:                                                ; preds = %2
  %.val = load ptr, ptr %1, align 8
  %6 = getelementptr i8, ptr %1, i64 32
  %.val34 = load ptr, ptr %6, align 8
  %7 = getelementptr i8, ptr %.val, i64 32
  %.val.val = load ptr, ptr %7, align 8
  %.val34.val = load i32, ptr %.val34, align 4
  %8 = getelementptr i8, ptr %.val.val, i64 8
  %.val.val.val = load ptr, ptr %8, align 8
  %9 = sext i32 %.val34.val to i64
  %10 = getelementptr inbounds ptr, ptr %.val.val.val, i64 %9
  %11 = load ptr, ptr %10, align 8
  br label %12

12:                                               ; preds = %5, %2
  %.026 = phi ptr [ %11, %5 ], [ %1, %2 ]
  %13 = tail call ptr @Abc_ObjName(ptr noundef %.026) #19
  %14 = tail call i32 (ptr, ptr, ...) @fprintf(ptr noundef %0, ptr noundef nonnull @.str.76, ptr noundef %13) #19
  %fputc = tail call i32 @fputc(i32 10, ptr %0)
  %15 = getelementptr i8, ptr %.026, i64 28
  %.026.val31 = load i32, ptr %15, align 4
  %16 = tail call i32 (ptr, ptr, ...) @fprintf(ptr noundef %0, ptr noundef nonnull @.str.77, i32 noundef %.026.val31) #19
  %.026.val3038 = load i32, ptr %15, align 4
  %17 = icmp sgt i32 %.026.val3038, 0
  br i1 %17, label %.lr.ph, label %.critedge

.lr.ph:                                           ; preds = %12
  %18 = getelementptr i8, ptr %.026, i64 32
  br label %19

19:                                               ; preds = %.lr.ph, %19
  %indvars.iv = phi i64 [ 0, %.lr.ph ], [ %indvars.iv.next, %19 ]
  %.026.val32 = load ptr, ptr %.026, align 8
  %.026.val33 = load ptr, ptr %18, align 8
  %20 = getelementptr i8, ptr %.026.val32, i64 32
  %.026.val32.val = load ptr, ptr %20, align 8
  %21 = getelementptr i8, ptr %.026.val32.val, i64 8
  %.026.val32.val.val = load ptr, ptr %21, align 8
  %22 = getelementptr inbounds nuw i32, ptr %.026.val33, i64 %indvars.iv
  %23 = load i32, ptr %22, align 4
  %24 = sext i32 %23 to i64
  %25 = getelementptr inbounds ptr, ptr %.026.val32.val.val, i64 %24
  %26 = load ptr, ptr %25, align 8
  %27 = tail call ptr @Abc_ObjName(ptr noundef %26) #19
  %28 = tail call i32 (ptr, ptr, ...) @fprintf(ptr noundef %0, ptr noundef nonnull @.str.78, ptr noundef %27) #19
  %indvars.iv.next = add nuw nsw i64 %indvars.iv, 1
  %.026.val30 = load i32, ptr %15, align 4
  %29 = sext i32 %.026.val30 to i64
  %30 = icmp slt i64 %indvars.iv.next, %29
  br i1 %30, label %19, label %.critedge, !llvm.loop !56

.critedge:                                        ; preds = %19, %12
  %fputc27 = tail call i32 @fputc(i32 10, ptr %0)
  %.026.val29 = load i32, ptr %15, align 4
  %31 = tail call i32 (ptr, ptr, ...) @fprintf(ptr noundef %0, ptr noundef nonnull @.str.79, i32 noundef %.026.val29) #19
  %32 = getelementptr i8, ptr %.026, i64 44
  %.026.val40 = load i32, ptr %32, align 4
  %33 = icmp sgt i32 %.026.val40, 0
  br i1 %33, label %.lr.ph42, label %.critedge2

.lr.ph42:                                         ; preds = %.critedge
  %34 = getelementptr i8, ptr %.026, i64 48
  br label %35

35:                                               ; preds = %.lr.ph42, %35
  %indvars.iv44 = phi i64 [ 0, %.lr.ph42 ], [ %indvars.iv.next45, %35 ]
  %.026.val36 = load ptr, ptr %.026, align 8
  %.026.val37 = load ptr, ptr %34, align 8
  %36 = getelementptr i8, ptr %.026.val36, i64 32
  %.026.val36.val = load ptr, ptr %36, align 8
  %37 = getelementptr i8, ptr %.026.val36.val, i64 8
  %.026.val36.val.val = load ptr, ptr %37, align 8
  %38 = getelementptr inbounds nuw i32, ptr %.026.val37, i64 %indvars.iv44
  %39 = load i32, ptr %38, align 4
  %40 = sext i32 %39 to i64
  %41 = getelementptr inbounds ptr, ptr %.026.val36.val.val, i64 %40
  %42 = load ptr, ptr %41, align 8
  %43 = tail call ptr @Abc_ObjName(ptr noundef %42) #19
  %44 = tail call i32 (ptr, ptr, ...) @fprintf(ptr noundef %0, ptr noundef nonnull @.str.78, ptr noundef %43) #19
  %indvars.iv.next45 = add nuw nsw i64 %indvars.iv44, 1
  %.026.val = load i32, ptr %32, align 4
  %45 = sext i32 %.026.val to i64
  %46 = icmp slt i64 %indvars.iv.next45, %45
  br i1 %46, label %35, label %.critedge2, !llvm.loop !57

.critedge2:                                       ; preds = %35, %.critedge
  %fputc28 = tail call i32 @fputc(i32 10, ptr %0)
  ret void
}